target datalayout = "e-m:e-p270:32:32-p271:32:32-p272:64:64-i64:64-i128:128-f80:128-n8:16:32:64-S128"
target triple = "x86_64-pc-linux-gnu"

%struct.strbuf = type { i64, i64, ptr }
%struct.ls_tree_options = type { i8, i32, i32, %struct.pathspec, ptr, ptr }
%struct.pathspec = type { i32, i8, i32, i32, ptr }

@the_repository = external global ptr, align 8
@.str.28 = private unnamed_addr constant [4 x i8] c"BAD\00", align 1
@.str.29 = private unnamed_addr constant [4 x i8] c"%lu\00", align 1
@.str.30 = private unnamed_addr constant [2 x i8] c"-\00", align 1
@.str.31 = private unnamed_addr constant [16 x i8] c"%06o %s %s %7s\09\00", align 1

; Function Attrs: inlinehint nounwind uwtable
define internal i32 @object_type(i32 noundef %0) #4 {
  %2 = alloca i32, align 4
  store i32 %0, ptr %2, align 4, !tbaa !4
  %3 = load i32, ptr %2, align 4, !tbaa !4
  %4 = and i32 %3, 61440
  %5 = icmp eq i32 %4, 16384
  br i1 %5, label %6, label %7

6:                                                ; preds = %1
  br label %12

7:                                                ; preds = %1
  %8 = load i32, ptr %2, align 4, !tbaa !4
  %9 = and i32 %8, 61440
  %10 = icmp eq i32 %9, 57344
  %11 = select i1 %10, i32 1, i32 3
  br label %12

12:                                               ; preds = %7, %6
  %13 = phi i32 [ 2, %6 ], [ %11, %7 ]
  ret i32 %13
}

; Function Attrs: nounwind uwtable
define internal i32 @show_tree_long(ptr noundef %0, ptr noundef %1, ptr noundef %2, i32 noundef %3, ptr noundef %4) #0 {
  %6 = alloca i32, align 4
  %7 = alloca ptr, align 8
  %8 = alloca ptr, align 8
  %9 = alloca ptr, align 8
  %10 = alloca i32, align 4
  %11 = alloca ptr, align 8
  %12 = alloca ptr, align 8
  %13 = alloca i32, align 4
  %14 = alloca i32, align 4
  %15 = alloca [24 x i8], align 16
  %16 = alloca i32, align 4
  %17 = alloca i32, align 4
  %18 = alloca i64, align 8
  store ptr %0, ptr %7, align 8, !tbaa !55
  store ptr %1, ptr %8, align 8, !tbaa !57
  store ptr %2, ptr %9, align 8, !tbaa !11
  store i32 %3, ptr %10, align 4, !tbaa !4
  store ptr %4, ptr %11, align 8, !tbaa !16
  call void @llvm.lifetime.start.p0(i64 8, ptr %12) #9
  %19 = load ptr, ptr %11, align 8, !tbaa !16
  store ptr %19, ptr %12, align 8, !tbaa !59
  call void @llvm.lifetime.start.p0(i64 4, ptr %13) #9
  call void @llvm.lifetime.start.p0(i64 4, ptr %14) #9
  call void @llvm.lifetime.start.p0(i64 24, ptr %15) #9
  call void @llvm.lifetime.start.p0(i64 4, ptr %16) #9
  %20 = load i32, ptr %10, align 4, !tbaa !4
  %21 = call i32 @object_type(i32 noundef %20)
  store i32 %21, ptr %16, align 4, !tbaa !4
  %22 = load ptr, ptr %12, align 8, !tbaa !59
  %23 = load ptr, ptr %8, align 8, !tbaa !57
  %24 = load ptr, ptr %9, align 8, !tbaa !11
  %25 = load i32, ptr %16, align 4, !tbaa !4
  %26 = call i32 @show_tree_common(ptr noundef %22, ptr noundef %14, ptr noundef %23, ptr noundef %24, i32 noundef %25)
  store i32 %26, ptr %13, align 4, !tbaa !4
  %27 = load i32, ptr %13, align 4, !tbaa !4
  %28 = icmp sge i32 %27, 0
  br i1 %28, label %29, label %31

29:                                               ; preds = %5
  %30 = load i32, ptr %13, align 4, !tbaa !4
  store i32 %30, ptr %6, align 4
  store i32 1, ptr %17, align 4
  br label %69

31:                                               ; preds = %5
  %32 = load i32, ptr %16, align 4, !tbaa !4
  %33 = icmp eq i32 %32, 3
  br i1 %33, label %34, label %47

34:                                               ; preds = %31
  call void @llvm.lifetime.start.p0(i64 8, ptr %18) #9
  %35 = load ptr, ptr @the_repository, align 8, !tbaa !13
  %36 = load ptr, ptr %7, align 8, !tbaa !55
  %37 = call i32 @oid_object_info(ptr noundef %35, ptr noundef %36, ptr noundef %18)
  %38 = icmp eq i32 %37, -1
  br i1 %38, label %39, label %42

39:                                               ; preds = %34
  %40 = getelementptr inbounds [24 x i8], ptr %15, i64 0, i64 0
  %41 = call i32 (ptr, i64, ptr, ...) @xsnprintf(ptr noundef %40, i64 noundef 24, ptr noundef @.str.28)
  br label %46

42:                                               ; preds = %34
  %43 = getelementptr inbounds [24 x i8], ptr %15, i64 0, i64 0
  %44 = load i64, ptr %18, align 8, !tbaa !64
  %45 = call i32 (ptr, i64, ptr, ...) @xsnprintf(ptr noundef %43, i64 noundef 24, ptr noundef @.str.29, i64 noundef %44)
  br label %46

46:                                               ; preds = %42, %39
  call void @llvm.lifetime.end.p0(i64 8, ptr %18) #9
  br label %50

47:                                               ; preds = %31
  %48 = getelementptr inbounds [24 x i8], ptr %15, i64 0, i64 0
  %49 = call i32 (ptr, i64, ptr, ...) @xsnprintf(ptr noundef %48, i64 noundef 24, ptr noundef @.str.30)
  br label %50

50:                                               ; preds = %47, %46
  %51 = load i32, ptr %10, align 4, !tbaa !4
  %52 = load i32, ptr %16, align 4, !tbaa !4
  %53 = call ptr @type_name(i32 noundef %52)
  %54 = load ptr, ptr @the_repository, align 8, !tbaa !13
  %55 = load ptr, ptr %7, align 8, !tbaa !55
  %56 = load ptr, ptr %12, align 8, !tbaa !59
  %57 = getelementptr inbounds nuw %struct.ls_tree_options, ptr %56, i32 0, i32 1
  %58 = load i32, ptr %57, align 4, !tbaa !65
  %59 = call ptr @repo_find_unique_abbrev(ptr noundef %54, ptr noundef %55, i32 noundef %58)
  %60 = getelementptr inbounds [24 x i8], ptr %15, i64 0, i64 0
  %61 = call i32 (ptr, ...) @printf(ptr noundef @.str.31, i32 noundef %51, ptr noundef %53, ptr noundef %59, ptr noundef %60)
  %62 = load ptr, ptr %12, align 8, !tbaa !59
  %63 = load ptr, ptr %8, align 8, !tbaa !57
  %64 = load ptr, ptr %9, align 8, !tbaa !11
  %65 = load ptr, ptr %8, align 8, !tbaa !57
  %66 = getelementptr inbounds nuw %struct.strbuf, ptr %65, i32 0, i32 1
  %67 = load i64, ptr %66, align 8, !tbaa !63
  call void @show_tree_common_default_long(ptr noundef %62, ptr noundef %63, ptr noundef %64, i64 noundef %67)
  %68 = load i32, ptr %14, align 4, !tbaa !4
  store i32 %68, ptr %6, align 4
  store i32 1, ptr %17, align 4
  br label %69

69:                                               ; preds = %50, %29
  call void @llvm.lifetime.end.p0(i64 4, ptr %16) #9
  call void @llvm.lifetime.end.p0(i64 24, ptr %15) #9
  call void @llvm.lifetime.end.p0(i64 4, ptr %14) #9
  call void @llvm.lifetime.end.p0(i64 4, ptr %13) #9
  call void @llvm.lifetime.end.p0(i64 8, ptr %12) #9
  %70 = load i32, ptr %6, align 4
  ret i32 %70
}