; Function Attrs: nounwind uwtable
define internal i32 @show_tree_long(ptr noundef %0, ptr noundef %1, ptr noundef %2, i32 noundef %3, ptr noundef readonly captures(none) %4) #0 {
  %6 = alloca i32, align 4
  %7 = alloca [24 x i8], align 16
  %8 = alloca i64, align 8
  call void @llvm.lifetime.start.p0(i64 4, ptr nonnull %6) #13
  call void @llvm.lifetime.start.p0(i64 24, ptr nonnull %7) #13
  %9 = and i32 %3, 61440
  %10 = icmp eq i32 %9, 16384
  %11 = icmp eq i32 %9, 57344
  %12 = select i1 %11, i32 1, i32 3
  %13 = select i1 %10, i32 2, i32 %12
  %14 = call fastcc i32 @show_tree_common(ptr noundef %4, ptr noundef %6, ptr noundef %1, ptr noundef %2, i32 noundef %13)
  %15 = icmp sgt i32 %14, -1
  br i1 %15, label %40, label %16

16:                                               ; preds = %5
  %17 = icmp eq i32 %13, 3
  br i1 %17, label %18, label %28

18:                                               ; preds = %16
  call void @llvm.lifetime.start.p0(i64 8, ptr nonnull %8) #13
  %19 = load ptr, ptr @the_repository, align 8, !tbaa !22
  %20 = call i32 @oid_object_info(ptr noundef %19, ptr noundef %0, ptr noundef nonnull %8) #13
  %21 = icmp eq i32 %20, -1
  br i1 %21, label %22, label %24

22:                                               ; preds = %18
  %23 = call i32 (ptr, i64, ptr, ...) @xsnprintf(ptr noundef nonnull %7, i64 noundef 24, ptr noundef nonnull @.str.28) #13
  br label %27

24:                                               ; preds = %18
  %25 = load i64, ptr %8, align 8, !tbaa !52
  %26 = call i32 (ptr, i64, ptr, ...) @xsnprintf(ptr noundef nonnull %7, i64 noundef 24, ptr noundef nonnull @.str.29, i64 noundef %25) #13
  br label %27

27:                                               ; preds = %24, %22
  call void @llvm.lifetime.end.p0(i64 8, ptr nonnull %8) #13
  br label %30

28:                                               ; preds = %16
  %29 = call i32 (ptr, i64, ptr, ...) @xsnprintf(ptr noundef nonnull %7, i64 noundef 24, ptr noundef nonnull @.str.30) #13
  br label %30

30:                                               ; preds = %28, %27
  %31 = call ptr @type_name(i32 noundef %13) #13
  %32 = load ptr, ptr @the_repository, align 8, !tbaa !22
  %33 = getelementptr inbounds nuw i8, ptr %4, i64 4
  %34 = load i32, ptr %33, align 4, !tbaa !53
  %35 = call ptr @repo_find_unique_abbrev(ptr noundef %32, ptr noundef %0, i32 noundef %34) #13
  %36 = call i32 (ptr, ...) @printf(ptr noundef nonnull dereferenceable(1) @.str.31, i32 noundef %3, ptr noundef %31, ptr noundef %35, ptr noundef nonnull %7)
  %37 = getelementptr inbounds nuw i8, ptr %1, i64 8
  %38 = load i64, ptr %37, align 8, !tbaa !47
  call fastcc void @show_tree_common_default_long(ptr noundef %4, ptr noundef %1, ptr noundef %2, i64 noundef %38)
  %39 = load i32, ptr %6, align 4, !tbaa !4
  br label %40

40:                                               ; preds = %5, %30
  %.0 = phi i32 [ %39, %30 ], [ %14, %5 ]
  call void @llvm.lifetime.end.p0(i64 24, ptr nonnull %7) #13
  call void @llvm.lifetime.end.p0(i64 4, ptr nonnull %6) #13
  ret i32 %.0
}